; Function Attrs: nounwind uwtable
define ptr @l_Lean_Meta_FindSplitImpl_visit_visitApp_x3f(ptr noundef %0, ptr noundef readonly captures(none) %1, ptr noundef %2, ptr noundef %3, ptr noundef %4, ptr noundef %5, ptr noundef %6, ptr noundef %7) local_unnamed_addr #1 {
  %9 = tail call ptr @l___private_Lean_Expr_0__Lean_Expr_getAppNumArgsAux(ptr noundef %0, ptr noundef nonnull inttoptr (i64 1 to ptr)) #7
  %10 = load ptr, ptr @l___private_Lean_Meta_Tactic_SplitIf_0__Lean_Meta_FindSplitImpl_isCandidate_x3f___lambda__3___closed__3, align 8, !tbaa !10
  %11 = ptrtoint ptr %9 to i64
  %12 = and i64 %11, 1
  %.not = icmp eq i64 %12, 0
  br i1 %.not, label %13, label %19

13:                                               ; preds = %8
  %.val.i = load i32, ptr %9, align 4, !tbaa !4
  %14 = icmp sgt i32 %.val.i, 0
  br i1 %14, label %15, label %17, !prof !9

15:                                               ; preds = %13
  %16 = add nuw i32 %.val.i, 1
  store i32 %16, ptr %9, align 4, !tbaa !4
  br label %25

17:                                               ; preds = %13
  %.not.i19 = icmp eq i32 %.val.i, 0
  br i1 %.not.i19, label %25, label %18

18:                                               ; preds = %17
  tail call void @lean_inc_ref_cold(ptr noundef nonnull %9) #7
  br label %25

19:                                               ; preds = %8
  %20 = tail call ptr @lean_mk_array(ptr noundef %9, ptr noundef %10) #7
  %21 = icmp ult ptr %9, inttoptr (i64 2 to ptr)
  br i1 %21, label %lean_dec.exit, label %22

22:                                               ; preds = %19
  %23 = add i64 %11, -2
  %24 = inttoptr i64 %23 to ptr
  br label %lean_dec.exit

25:                                               ; preds = %18, %17, %15
  %26 = tail call ptr @lean_mk_array(ptr noundef nonnull %9, ptr noundef %10) #7
  %27 = tail call ptr @lean_nat_big_sub(ptr noundef nonnull %9, ptr noundef nonnull inttoptr (i64 3 to ptr)) #7
  %28 = load i32, ptr %9, align 4, !tbaa !4
  %29 = icmp sgt i32 %28, 1
  br i1 %29, label %30, label %32, !prof !9

30:                                               ; preds = %25
  %31 = add nsw i32 %28, -1
  store i32 %31, ptr %9, align 4, !tbaa !4
  br label %lean_dec.exit

32:                                               ; preds = %25
  %.not.i = icmp eq i32 %28, 0
  br i1 %.not.i, label %lean_dec.exit, label %33

33:                                               ; preds = %32
  tail call void @lean_dec_ref_cold(ptr noundef nonnull %9) #7
  br label %lean_dec.exit

lean_dec.exit:                                    ; preds = %22, %19, %33, %32, %30
  %.1.i21 = phi ptr [ %27, %30 ], [ %27, %32 ], [ %27, %33 ], [ inttoptr (i64 1 to ptr), %19 ], [ %24, %22 ]
  %34 = phi ptr [ %26, %30 ], [ %26, %32 ], [ %26, %33 ], [ %20, %19 ], [ %20, %22 ]
  %35 = tail call ptr @l_Lean_Expr_withAppAux___at_Lean_Meta_FindSplitImpl_visit_visitApp_x3f___spec__2(ptr noundef %0, ptr noundef %34, ptr noundef %.1.i21, ptr noundef %1, ptr noundef %2, ptr noundef %3, ptr noundef %4, ptr noundef %5, ptr noundef %6, ptr noundef %7)
  ret ptr %35
}